target datalayout = "e-m:e-p270:32:32-p271:32:32-p272:64:64-i64:64-i128:128-f80:128-n8:16:32:64-S128"
target triple = "x86_64-pc-linux-gnu"

%struct.anon.14 = type { i8 }
%struct.hb_hashmap_t = type { %struct.hb_object_header_t, i32, i32, i32, i32, i32, ptr }
%struct.hb_object_header_t = type { %struct.hb_reference_count_t, %struct.hb_atomic_int_t, %struct.hb_atomic_ptr_t }
%struct.hb_reference_count_t = type { %struct.hb_atomic_int_t }
%struct.hb_atomic_int_t = type { i32 }
%struct.hb_atomic_ptr_t = type { ptr }
%"struct.hb_hashmap_t<unsigned int, unsigned int, true>::item_t" = type { i32, i32, i32 }
%struct.hb_array_t = type { ptr, i32, i32 }

@_ZL7hb_iter = internal constant %struct.anon.14 zeroinitializer, align 1

; Function Attrs: mustprogress nounwind uwtable
define linkonce_odr hidden void @_ZN10hb_array_tIN12hb_hashmap_tIjjLb1EE6item_tEEC2EPS2_j(ptr noundef nonnull align 8 dereferenceable(16) %0, ptr noundef %1, i32 noundef %2) unnamed_addr #2 comdat align 2 {
  %4 = alloca ptr, align 8
  %5 = alloca ptr, align 8
  %6 = alloca i32, align 4
  store ptr %0, ptr %4, align 8
  store ptr %1, ptr %5, align 8
  store i32 %2, ptr %6, align 4
  %7 = load ptr, ptr %4, align 8
  %8 = getelementptr inbounds %struct.hb_array_t, ptr %7, i32 0, i32 0
  %9 = load ptr, ptr %5, align 8
  store ptr %9, ptr %8, align 8
  %10 = getelementptr inbounds %struct.hb_array_t, ptr %7, i32 0, i32 1
  %11 = load i32, ptr %6, align 4
  store i32 %11, ptr %10, align 8
  %12 = getelementptr inbounds %struct.hb_array_t, ptr %7, i32 0, i32 2
  store i32 0, ptr %12, align 4
  ret void
}

; Function Attrs: mustprogress nounwind uwtable
define linkonce_odr hidden void @_ZN12hb_hashmap_tIjjLb1EE6item_tC2Ev(ptr noundef nonnull align 4 dereferenceable(12) %0) unnamed_addr #2 comdat align 2 {
  %2 = alloca ptr, align 8
  store ptr %0, ptr %2, align 8
  %3 = load ptr, ptr %2, align 8
  %4 = getelementptr inbounds %"struct.hb_hashmap_t<unsigned int, unsigned int, true>::item_t", ptr %3, i32 0, i32 0
  store i32 0, ptr %4, align 4
  %5 = getelementptr inbounds %"struct.hb_hashmap_t<unsigned int, unsigned int, true>::item_t", ptr %3, i32 0, i32 1
  %6 = load i32, ptr %5, align 4
  %7 = and i32 %6, -2
  %8 = or i32 %7, 0
  store i32 %8, ptr %5, align 4
  %9 = getelementptr inbounds %"struct.hb_hashmap_t<unsigned int, unsigned int, true>::item_t", ptr %3, i32 0, i32 1
  %10 = load i32, ptr %9, align 4
  %11 = and i32 %10, -3
  %12 = or i32 %11, 0
  store i32 %12, ptr %9, align 4
  %13 = getelementptr inbounds %"struct.hb_hashmap_t<unsigned int, unsigned int, true>::item_t", ptr %3, i32 0, i32 1
  %14 = load i32, ptr %13, align 4
  %15 = and i32 %14, 3
  %16 = or i32 %15, 0
  store i32 %16, ptr %13, align 4
  %17 = getelementptr inbounds %"struct.hb_hashmap_t<unsigned int, unsigned int, true>::item_t", ptr %3, i32 0, i32 2
  store i32 0, ptr %17, align 4
  ret void
}

; Function Attrs: mustprogress nounwind uwtable
define linkonce_odr hidden noundef ptr @_ZNK10hb_array_tIN12hb_hashmap_tIjjLb1EE6item_tEE3endEv(ptr noundef nonnull align 8 dereferenceable(16) %0) #2 comdat align 2 {
  %2 = alloca ptr, align 8
  store ptr %0, ptr %2, align 8
  %3 = load ptr, ptr %2, align 8
  %4 = getelementptr inbounds %struct.hb_array_t, ptr %3, i32 0, i32 0
  %5 = load ptr, ptr %4, align 8
  %6 = getelementptr inbounds %struct.hb_array_t, ptr %3, i32 0, i32 1
  %7 = load i32, ptr %6, align 8
  %8 = zext i32 %7 to i64
  %9 = getelementptr inbounds %"struct.hb_hashmap_t<unsigned int, unsigned int, true>::item_t", ptr %5, i64 %8
  ret ptr %9
}

; Function Attrs: mustprogress nounwind uwtable
define linkonce_odr hidden noundef ptr @_ZNK10hb_array_tIN12hb_hashmap_tIjjLb1EE6item_tEE5beginEv(ptr noundef nonnull align 8 dereferenceable(16) %0) #2 comdat align 2 {
  %2 = alloca ptr, align 8
  store ptr %0, ptr %2, align 8
  %3 = load ptr, ptr %2, align 8
  %4 = getelementptr inbounds %struct.hb_array_t, ptr %3, i32 0, i32 0
  %5 = load ptr, ptr %4, align 8
  ret ptr %5
}

; Function Attrs: mustprogress uwtable
define internal { ptr, i64 } @"_ZNK3$_7clIN12hb_hashmap_tIjjLb1EE6item_tEEE10hb_array_tIT_EPS5_j"(ptr noundef nonnull align 1 dereferenceable(1) %0, ptr noundef %1, i32 noundef %2) #0 align 2 {
  %4 = alloca %struct.hb_array_t, align 8
  %5 = alloca ptr, align 8
  %6 = alloca ptr, align 8
  %7 = alloca i32, align 4
  store ptr %0, ptr %5, align 8
  store ptr %1, ptr %6, align 8
  store i32 %2, ptr %7, align 4
  %8 = load ptr, ptr %6, align 8
  %9 = load i32, ptr %7, align 4
  call void @_ZN10hb_array_tIN12hb_hashmap_tIjjLb1EE6item_tEEC2EPS2_j(ptr noundef nonnull align 8 dereferenceable(16) %4, ptr noundef %8, i32 noundef %9)
  %10 = load { ptr, i64 }, ptr %4, align 8
  ret { ptr, i64 } %10
}

; Function Attrs: mustprogress nounwind uwtable
define linkonce_odr hidden noundef i32 @_ZNK12hb_hashmap_tIjjLb1EE4sizeEv(ptr noundef nonnull align 8 dereferenceable(48) %0) #2 comdat align 2 {
  %2 = alloca ptr, align 8
  store ptr %0, ptr %2, align 8
  %3 = load ptr, ptr %2, align 8
  %4 = getelementptr inbounds %struct.hb_hashmap_t, ptr %3, i32 0, i32 3
  %5 = load i32, ptr %4, align 8
  %6 = icmp ne i32 %5, 0
  br i1 %6, label %7, label %11

7:                                                ; preds = %1
  %8 = getelementptr inbounds %struct.hb_hashmap_t, ptr %3, i32 0, i32 3
  %9 = load i32, ptr %8, align 8
  %10 = add i32 %9, 1
  br label %12

11:                                               ; preds = %1
  br label %12

12:                                               ; preds = %11, %7
  %13 = phi i32 [ %10, %7 ], [ 0, %11 ]
  ret i32 %13
}

; Function Attrs: mustprogress uwtable
define linkonce_odr hidden void @_ZN12hb_hashmap_tIjjLb1EE5clearEv(ptr noundef nonnull align 8 dereferenceable(48) %0) #0 comdat align 2 {
  %2 = alloca ptr, align 8
  %3 = alloca ptr, align 8
  %4 = alloca %struct.hb_array_t, align 8
  %5 = alloca ptr, align 8
  %6 = alloca ptr, align 8
  %7 = alloca ptr, align 8
  store ptr %0, ptr %2, align 8
  %8 = load ptr, ptr %2, align 8
  %9 = getelementptr inbounds %struct.hb_hashmap_t, ptr %8, i32 0, i32 1
  %10 = load i32, ptr %9, align 8
  %11 = and i32 %10, 1
  %12 = icmp ne i32 %11, 0
  br i1 %12, label %14, label %13

13:                                               ; preds = %1
  br label %43

14:                                               ; preds = %1
  %15 = getelementptr inbounds %struct.hb_hashmap_t, ptr %8, i32 0, i32 6
  %16 = load ptr, ptr %15, align 8
  %17 = call noundef i32 @_ZNK12hb_hashmap_tIjjLb1EE4sizeEv(ptr noundef nonnull align 8 dereferenceable(48) %8)
  %18 = call { ptr, i64 } @"_ZNK3$_7clIN12hb_hashmap_tIjjLb1EE6item_tEEE10hb_array_tIT_EPS5_j"(ptr noundef nonnull align 1 dereferenceable(1) @_ZL7hb_iter, ptr noundef %16, i32 noundef %17)
  %19 = getelementptr inbounds { ptr, i64 }, ptr %4, i32 0, i32 0
  %20 = extractvalue { ptr, i64 } %18, 0
  store ptr %20, ptr %19, align 8
  %21 = getelementptr inbounds { ptr, i64 }, ptr %4, i32 0, i32 1
  %22 = extractvalue { ptr, i64 } %18, 1
  store i64 %22, ptr %21, align 8
  store ptr %4, ptr %3, align 8
  %23 = load ptr, ptr %3, align 8
  %24 = call noundef ptr @_ZNK10hb_array_tIN12hb_hashmap_tIjjLb1EE6item_tEE5beginEv(ptr noundef nonnull align 8 dereferenceable(16) %23)
  store ptr %24, ptr %5, align 8
  %25 = load ptr, ptr %3, align 8
  %26 = call noundef ptr @_ZNK10hb_array_tIN12hb_hashmap_tIjjLb1EE6item_tEE3endEv(ptr noundef nonnull align 8 dereferenceable(16) %25)
  store ptr %26, ptr %6, align 8
  br label %27

27:                                               ; preds = %34, %14
  %28 = load ptr, ptr %5, align 8
  %29 = load ptr, ptr %6, align 8
  %30 = icmp ne ptr %28, %29
  br i1 %30, label %31, label %37

31:                                               ; preds = %27
  %32 = load ptr, ptr %5, align 8
  store ptr %32, ptr %7, align 8
  %33 = load ptr, ptr %7, align 8
  call void @_ZN12hb_hashmap_tIjjLb1EE6item_tC2Ev(ptr noundef nonnull align 4 dereferenceable(12) %33)
  br label %34

34:                                               ; preds = %31
  %35 = load ptr, ptr %5, align 8
  %36 = getelementptr inbounds %"struct.hb_hashmap_t<unsigned int, unsigned int, true>::item_t", ptr %35, i32 1
  store ptr %36, ptr %5, align 8
  br label %27

37:                                               ; preds = %27
  %38 = getelementptr inbounds %struct.hb_hashmap_t, ptr %8, i32 0, i32 2
  store i32 0, ptr %38, align 4
  %39 = getelementptr inbounds %struct.hb_hashmap_t, ptr %8, i32 0, i32 1
  %40 = load i32, ptr %39, align 8
  %41 = and i32 %40, 1
  %42 = or i32 %41, 0
  store i32 %42, ptr %39, align 8
  br label %43

43:                                               ; preds = %37, %13
  ret void
}

; Function Attrs: mustprogress uwtable
define hidden void @hb_map_clear(ptr noundef %0) #0 {
  %2 = alloca ptr, align 8
  store ptr %0, ptr %2, align 8
  %3 = load ptr, ptr %2, align 8
  call void @_ZN12hb_hashmap_tIjjLb1EE5clearEv(ptr noundef nonnull align 8 dereferenceable(48) %3)
  ret void
}