; Function Attrs: mustprogress nofree norecurse nosync nounwind willreturn memory(write, argmem: readwrite, inaccessiblemem: none) uwtable
define hidden void @hb_map_clear(ptr nocapture noundef %0) local_unnamed_addr #9 {
  %2 = getelementptr inbounds i8, ptr %0, i64 16
  %3 = load i32, ptr %2, align 8
  %4 = and i32 %3, 1
  %.not.i = icmp eq i32 %4, 0
  br i1 %.not.i, label %_ZN12hb_hashmap_tIjjLb1EE5clearEv.exit, label %5

5:                                                ; preds = %1
  %6 = getelementptr inbounds i8, ptr %0, i64 24
  %7 = load i32, ptr %6, align 8
  %.fr15.i = freeze i32 %7
  %8 = add i32 %.fr15.i, 1
  %.not810.i = icmp ult i32 %8, 2
  br i1 %.not810.i, label %._crit_edge.i, label %.lr.ph.preheader.i

.lr.ph.preheader.i:                               ; preds = %5
  %.sroa.2.8.insert.ext.i.i = zext i32 %8 to i64
  %9 = getelementptr inbounds i8, ptr %0, i64 40
  %10 = load ptr, ptr %9, align 8
  %11 = mul nuw nsw i64 %.sroa.2.8.insert.ext.i.i, 12
  %12 = add nsw i64 %11, -12
  %13 = urem i64 %12, 12
  %14 = sub nuw nsw i64 %11, %13
  tail call void @llvm.memset.p0.i64(ptr noundef nonnull align 4 dereferenceable(1) %10, i8 0, i64 %14, i1 false)
  %.pre.i = load i32, ptr %2, align 8
  %.pre12.i = and i32 %.pre.i, 1
  br label %._crit_edge.i

._crit_edge.i:                                    ; preds = %.lr.ph.preheader.i, %5
  %.pre-phi.i = phi i32 [ %.pre12.i, %.lr.ph.preheader.i ], [ 1, %5 ]
  %15 = getelementptr inbounds i8, ptr %0, i64 20
  store i32 0, ptr %15, align 4
  store i32 %.pre-phi.i, ptr %2, align 8
  br label %_ZN12hb_hashmap_tIjjLb1EE5clearEv.exit

_ZN12hb_hashmap_tIjjLb1EE5clearEv.exit:           ; preds = %1, %._crit_edge.i
  ret void
}